target datalayout = "e-m:e-p270:32:32-p271:32:32-p272:64:64-i64:64-i128:128-f80:128-n8:16:32:64-S128"
target triple = "x86_64-unknown-linux-gnu"

%class.btVector3 = type { [4 x float] }
%struct.btDbvt = type { ptr, ptr, i32, i32, i32, [4 x i8], %class.btAlignedObjectArray }
%class.btAlignedObjectArray = type <{ %class.btAlignedAllocator, [3 x i8], i32, i32, [4 x i8], ptr, i8, [7 x i8] }>
%class.btAlignedAllocator = type { i8 }
%struct.btDbvtNode = type { %struct.btDbvtAabbMm, ptr, %union.anon.4 }
%struct.btDbvtAabbMm = type { %class.btVector3, %class.btVector3 }
%union.anon.4 = type { [2 x ptr] }

; Function Attrs: mustprogress nounwind uwtable
define linkonce_odr dso_local void @_ZN9btVector3C2Ev(ptr noundef nonnull align 4 dereferenceable(16) %this) unnamed_addr #1 comdat align 2 {
entry:
  %this.addr = alloca ptr, align 8
  store ptr %this, ptr %this.addr, align 8
  ret void
}

; Function Attrs: mustprogress uwtable
define linkonce_odr dso_local void @_ZN12btDbvtAabbMmC2Ev(ptr noundef nonnull align 4 dereferenceable(32) %this) unnamed_addr #2 comdat align 2 {
entry:
  %this.addr = alloca ptr, align 8
  store ptr %this, ptr %this.addr, align 8
  %this1 = load ptr, ptr %this.addr, align 8
  %mi = getelementptr inbounds %struct.btDbvtAabbMm, ptr %this1, i32 0, i32 0
  call void @_ZN9btVector3C2Ev(ptr noundef nonnull align 4 dereferenceable(16) %mi)
  %mx = getelementptr inbounds %struct.btDbvtAabbMm, ptr %this1, i32 0, i32 1
  call void @_ZN9btVector3C2Ev(ptr noundef nonnull align 4 dereferenceable(16) %mx)
  ret void
}

; Function Attrs: mustprogress uwtable
define linkonce_odr dso_local void @_ZN10btDbvtNodeC2Ev(ptr noundef nonnull align 8 dereferenceable(56) %this) unnamed_addr #2 comdat align 2 {
entry:
  %this.addr = alloca ptr, align 8
  store ptr %this, ptr %this.addr, align 8
  %this1 = load ptr, ptr %this.addr, align 8
  %volume = getelementptr inbounds %struct.btDbvtNode, ptr %this1, i32 0, i32 0
  call void @_ZN12btDbvtAabbMmC2Ev(ptr noundef nonnull align 4 dereferenceable(32) %volume)
  ret void
}

; Function Attrs: mustprogress uwtable
define internal noundef ptr @_ZL10createnodeP6btDbvtP10btDbvtNodePv(ptr noundef %pdbvt, ptr noundef %parent, ptr noundef %data) #2 {
entry:
  %pdbvt.addr = alloca ptr, align 8
  %parent.addr = alloca ptr, align 8
  %data.addr = alloca ptr, align 8
  %node = alloca ptr, align 8
  store ptr %pdbvt, ptr %pdbvt.addr, align 8
  store ptr %parent, ptr %parent.addr, align 8
  store ptr %data, ptr %data.addr, align 8
  %0 = load ptr, ptr %pdbvt.addr, align 8
  %m_free = getelementptr inbounds %struct.btDbvt, ptr %0, i32 0, i32 1
  %1 = load ptr, ptr %m_free, align 8
  %tobool = icmp ne ptr %1, null
  br i1 %tobool, label %if.then, label %if.else

if.then:                                          ; preds = %entry
  %2 = load ptr, ptr %pdbvt.addr, align 8
  %m_free1 = getelementptr inbounds %struct.btDbvt, ptr %2, i32 0, i32 1
  %3 = load ptr, ptr %m_free1, align 8
  store ptr %3, ptr %node, align 8
  %4 = load ptr, ptr %pdbvt.addr, align 8
  %m_free2 = getelementptr inbounds %struct.btDbvt, ptr %4, i32 0, i32 1
  store ptr null, ptr %m_free2, align 8
  br label %if.end

if.else:                                          ; preds = %entry
  %call = call noundef ptr @_Z22btAlignedAllocInternalmi(i64 noundef 56, i32 noundef 16)
  call void @llvm.memset.p0.i64(ptr align 8 %call, i8 0, i64 56, i1 false)
  call void @_ZN10btDbvtNodeC2Ev(ptr noundef nonnull align 8 dereferenceable(56) %call)
  store ptr %call, ptr %node, align 8
  br label %if.end

if.end:                                           ; preds = %if.else, %if.then
  %5 = load ptr, ptr %parent.addr, align 8
  %6 = load ptr, ptr %node, align 8
  %parent3 = getelementptr inbounds %struct.btDbvtNode, ptr %6, i32 0, i32 1
  store ptr %5, ptr %parent3, align 8
  %7 = load ptr, ptr %data.addr, align 8
  %8 = load ptr, ptr %node, align 8
  %9 = getelementptr inbounds %struct.btDbvtNode, ptr %8, i32 0, i32 2
  store ptr %7, ptr %9, align 8
  %10 = load ptr, ptr %node, align 8
  %11 = getelementptr inbounds %struct.btDbvtNode, ptr %10, i32 0, i32 2
  %arrayidx = getelementptr inbounds [2 x ptr], ptr %11, i64 0, i64 1
  store ptr null, ptr %arrayidx, align 8
  %12 = load ptr, ptr %node, align 8
  ret ptr %12
}

; Function Attrs: mustprogress uwtable
define internal noundef ptr @_ZL10createnodeP6btDbvtP10btDbvtNodeRK12btDbvtAabbMmPv(ptr noundef %pdbvt, ptr noundef %parent, ptr noundef nonnull align 4 dereferenceable(32) %volume, ptr noundef %data) #2 {
entry:
  %pdbvt.addr = alloca ptr, align 8
  %parent.addr = alloca ptr, align 8
  %volume.addr = alloca ptr, align 8
  %data.addr = alloca ptr, align 8
  %node = alloca ptr, align 8
  store ptr %pdbvt, ptr %pdbvt.addr, align 8
  store ptr %parent, ptr %parent.addr, align 8
  store ptr %volume, ptr %volume.addr, align 8
  store ptr %data, ptr %data.addr, align 8
  %0 = load ptr, ptr %pdbvt.addr, align 8
  %1 = load ptr, ptr %parent.addr, align 8
  %2 = load ptr, ptr %data.addr, align 8
  %call = call noundef ptr @_ZL10createnodeP6btDbvtP10btDbvtNodePv(ptr noundef %0, ptr noundef %1, ptr noundef %2)
  store ptr %call, ptr %node, align 8
  %3 = load ptr, ptr %volume.addr, align 8
  %4 = load ptr, ptr %node, align 8
  %volume1 = getelementptr inbounds %struct.btDbvtNode, ptr %4, i32 0, i32 0
  call void @llvm.memcpy.p0.p0.i64(ptr align 8 %volume1, ptr align 4 %3, i64 32, i1 false)
  %5 = load ptr, ptr %node, align 8
  ret ptr %5
}

; Function Attrs: mustprogress uwtable
define dso_local noundef ptr @_ZN6btDbvt6insertERK12btDbvtAabbMmPv(ptr noundef nonnull align 8 dereferenceable(64) %this, ptr noundef nonnull align 4 dereferenceable(32) %volume, ptr noundef %data) #2 align 2 {
entry:
  %this.addr = alloca ptr, align 8
  %volume.addr = alloca ptr, align 8
  %data.addr = alloca ptr, align 8
  %leaf = alloca ptr, align 8
  store ptr %this, ptr %this.addr, align 8
  store ptr %volume, ptr %volume.addr, align 8
  store ptr %data, ptr %data.addr, align 8
  %this1 = load ptr, ptr %this.addr, align 8
  %0 = load ptr, ptr %volume.addr, align 8
  %1 = load ptr, ptr %data.addr, align 8
  %call = call noundef ptr @_ZL10createnodeP6btDbvtP10btDbvtNodeRK12btDbvtAabbMmPv(ptr noundef %this1, ptr noundef null, ptr noundef nonnull align 4 dereferenceable(32) %0, ptr noundef %1)
  store ptr %call, ptr %leaf, align 8
  %m_root = getelementptr inbounds %struct.btDbvt, ptr %this1, i32 0, i32 0
  %2 = load ptr, ptr %m_root, align 8
  %3 = load ptr, ptr %leaf, align 8
  call void @_ZL10insertleafP6btDbvtP10btDbvtNodeS2_(ptr noundef %this1, ptr noundef %2, ptr noundef %3)
  %m_leaves = getelementptr inbounds %struct.btDbvt, ptr %this1, i32 0, i32 3
  %4 = load i32, ptr %m_leaves, align 4
  %inc = add nsw i32 %4, 1
  store i32 %inc, ptr %m_leaves, align 4
  %5 = load ptr, ptr %leaf, align 8
  ret ptr %5
}