; Function Attrs: mustprogress uwtable
define dso_local noundef ptr @_ZN6btDbvt6insertERK12btDbvtAabbMmPv(ptr nocapture noundef nonnull align 8 dereferenceable(64) %this, ptr nocapture noundef nonnull readonly align 4 dereferenceable(32) %volume, ptr noundef %data) local_unnamed_addr #2 align 2 {
entry:
  %m_free.i.i = getelementptr inbounds i8, ptr %this, i64 8
  %0 = load ptr, ptr %m_free.i.i, align 8
  %tobool.not.i.i = icmp eq ptr %0, null
  br i1 %tobool.not.i.i, label %if.else.i.i, label %if.then.i.i

if.then.i.i:                                      ; preds = %entry
  store ptr null, ptr %m_free.i.i, align 8
  br label %_ZL10createnodeP6btDbvtP10btDbvtNodeRK12btDbvtAabbMmPv.exit

if.else.i.i:                                      ; preds = %entry
  %call.i.i = tail call noundef ptr @_Z22btAlignedAllocInternalmi(i64 noundef 56, i32 noundef 16)
  tail call void @llvm.memset.p0.i64(ptr noundef nonnull align 8 dereferenceable(56) %call.i.i, i8 0, i64 56, i1 false)
  br label %_ZL10createnodeP6btDbvtP10btDbvtNodeRK12btDbvtAabbMmPv.exit

_ZL10createnodeP6btDbvtP10btDbvtNodeRK12btDbvtAabbMmPv.exit: ; preds = %if.then.i.i, %if.else.i.i
  %node.0.i.i = phi ptr [ %0, %if.then.i.i ], [ %call.i.i, %if.else.i.i ]
  %parent3.i.i = getelementptr inbounds i8, ptr %node.0.i.i, i64 32
  store ptr null, ptr %parent3.i.i, align 8
  %1 = getelementptr inbounds i8, ptr %node.0.i.i, i64 40
  store ptr %data, ptr %1, align 8
  %arrayidx.i.i = getelementptr inbounds i8, ptr %node.0.i.i, i64 48
  store ptr null, ptr %arrayidx.i.i, align 8
  tail call void @llvm.memcpy.p0.p0.i64(ptr noundef nonnull align 8 dereferenceable(32) %node.0.i.i, ptr noundef nonnull align 4 dereferenceable(32) %volume, i64 32, i1 false)
  %2 = load ptr, ptr %this, align 8
  tail call fastcc void @_ZL10insertleafP6btDbvtP10btDbvtNodeS2_(ptr noundef nonnull %this, ptr noundef %2, ptr noundef nonnull %node.0.i.i)
  %m_leaves = getelementptr inbounds i8, ptr %this, i64 20
  %3 = load i32, ptr %m_leaves, align 4
  %inc = add nsw i32 %3, 1
  store i32 %inc, ptr %m_leaves, align 4
  ret ptr %node.0.i.i
}